; Function Attrs: nounwind uwtable
define void @Abc_NtkSetTravId_rec(ptr noundef readonly captures(none) %0) local_unnamed_addr #0 {
  br label %tailrecurse

tailrecurse:                                      ; preds = %50, %1
  %.tr = phi ptr [ %0, %1 ], [ %56, %50 ]
  %.val5 = load ptr, ptr %.tr, align 8, !tbaa !73
  %2 = getelementptr i8, ptr %.tr, i64 16
  %.val6 = load i32, ptr %2, align 8, !tbaa !84
  %3 = getelementptr inbounds nuw i8, ptr %.val5, i64 216
  %4 = load i32, ptr %3, align 8, !tbaa !90
  %5 = getelementptr inbounds nuw i8, ptr %.val5, i64 224
  %6 = add nsw i32 %.val6, 1
  %7 = getelementptr inbounds nuw i8, ptr %.val5, i64 228
  %8 = load i32, ptr %7, align 4, !tbaa !85
  %.not.i.not.i.i.i = icmp slt i32 %.val6, %8
  br i1 %.not.i.not.i.i.i, label %Abc_NodeSetTravIdCurrent.exit, label %9

9:                                                ; preds = %tailrecurse
  %10 = load i32, ptr %5, align 8, !tbaa !89
  %11 = shl nsw i32 %10, 1
  %.not.i.i.i = icmp slt i32 %.val6, %11
  %.not.i.i.not.i.i.i = icmp sgt i32 %10, %.val6
  br i1 %.not.i.i.i, label %24, label %12

12:                                               ; preds = %9
  br i1 %.not.i.i.not.i.i.i, label %Vec_IntGrow.exit.i.i.i.i, label %13

13:                                               ; preds = %12
  %14 = getelementptr inbounds nuw i8, ptr %.val5, i64 232
  %15 = load ptr, ptr %14, align 8, !tbaa !86
  %.not9.i.i.i.i.i = icmp eq ptr %15, null
  %16 = sext i32 %6 to i64
  %17 = shl nsw i64 %16, 2
  br i1 %.not9.i.i.i.i.i, label %20, label %18

18:                                               ; preds = %13
  %19 = tail call ptr @realloc(ptr noundef nonnull %15, i64 noundef %17) #13
  br label %22

20:                                               ; preds = %13
  %21 = tail call noalias ptr @malloc(i64 noundef %17) #12
  br label %22

22:                                               ; preds = %20, %18
  %23 = phi ptr [ %19, %18 ], [ %21, %20 ]
  store ptr %23, ptr %14, align 8, !tbaa !86
  br label %Vec_IntGrow.exit.sink.split.i.i.i.i

24:                                               ; preds = %9
  br i1 %.not.i.i.not.i.i.i, label %Vec_IntGrow.exit.i.i.i.i, label %25

25:                                               ; preds = %24
  %26 = getelementptr inbounds nuw i8, ptr %.val5, i64 232
  %27 = load ptr, ptr %26, align 8, !tbaa !86
  %.not9.i21.i.i.i.i = icmp eq ptr %27, null
  %28 = sext i32 %11 to i64
  %29 = shl nsw i64 %28, 2
  br i1 %.not9.i21.i.i.i.i, label %32, label %30

30:                                               ; preds = %25
  %31 = tail call ptr @realloc(ptr noundef nonnull %27, i64 noundef %29) #13
  br label %34

32:                                               ; preds = %25
  %33 = tail call noalias ptr @malloc(i64 noundef %29) #12
  br label %34

34:                                               ; preds = %32, %30
  %35 = phi ptr [ %31, %30 ], [ %33, %32 ]
  store ptr %35, ptr %26, align 8, !tbaa !86
  br label %Vec_IntGrow.exit.sink.split.i.i.i.i

Vec_IntGrow.exit.sink.split.i.i.i.i:              ; preds = %34, %22
  %.sink.i.i.i.i = phi i32 [ %11, %34 ], [ %6, %22 ]
  store i32 %.sink.i.i.i.i, ptr %5, align 8, !tbaa !89
  %.pre.i.i.i = load i32, ptr %7, align 4, !tbaa !85
  br label %Vec_IntGrow.exit.i.i.i.i

Vec_IntGrow.exit.i.i.i.i:                         ; preds = %Vec_IntGrow.exit.sink.split.i.i.i.i, %24, %12
  %36 = phi i32 [ %.pre.i.i.i, %Vec_IntGrow.exit.sink.split.i.i.i.i ], [ %8, %24 ], [ %8, %12 ]
  %.not4.i.i.i = icmp sgt i32 %36, %.val6
  br i1 %.not4.i.i.i, label %._crit_edge.i.i.i.i, label %.lr.ph.i.i.i.i

.lr.ph.i.i.i.i:                                   ; preds = %Vec_IntGrow.exit.i.i.i.i
  %37 = getelementptr inbounds nuw i8, ptr %.val5, i64 232
  %38 = load ptr, ptr %37, align 8, !tbaa !86
  %39 = sext i32 %36 to i64
  %40 = shl nsw i64 %39, 2
  %scevgep.i.i.i.i = getelementptr i8, ptr %38, i64 %40
  %41 = sub i32 %.val6, %36
  %42 = zext i32 %41 to i64
  %43 = shl nuw nsw i64 %42, 2
  %44 = add nuw nsw i64 %43, 4
  tail call void @llvm.memset.p0.i64(ptr noundef nonnull align 4 dereferenceable(1) %scevgep.i.i.i.i, i8 0, i64 %44, i1 false), !tbaa !54
  br label %._crit_edge.i.i.i.i

._crit_edge.i.i.i.i:                              ; preds = %.lr.ph.i.i.i.i, %Vec_IntGrow.exit.i.i.i.i
  store i32 %6, ptr %7, align 4, !tbaa !85
  br label %Abc_NodeSetTravIdCurrent.exit

Abc_NodeSetTravIdCurrent.exit:                    ; preds = %tailrecurse, %._crit_edge.i.i.i.i
  %45 = getelementptr i8, ptr %.val5, i64 232
  %.val.i.i.i = load ptr, ptr %45, align 8, !tbaa !86
  %46 = sext i32 %.val6 to i64
  %47 = getelementptr inbounds i32, ptr %.val.i.i.i, i64 %46
  store i32 %4, ptr %47, align 4, !tbaa !54
  %48 = getelementptr i8, ptr %.tr, i64 28
  %.val = load i32, ptr %48, align 4, !tbaa !42
  %49 = icmp eq i32 %.val, 0
  br i1 %49, label %57, label %50

50:                                               ; preds = %Abc_NodeSetTravIdCurrent.exit
  %.val3 = load ptr, ptr %.tr, align 8, !tbaa !73
  %51 = getelementptr i8, ptr %.tr, i64 32
  %.val4 = load ptr, ptr %51, align 8, !tbaa !74
  %52 = getelementptr i8, ptr %.val3, i64 32
  %.val3.val = load ptr, ptr %52, align 8, !tbaa !25
  %.val4.val = load i32, ptr %.val4, align 4, !tbaa !54
  %53 = getelementptr i8, ptr %.val3.val, i64 8
  %.val3.val.val = load ptr, ptr %53, align 8, !tbaa !28
  %54 = sext i32 %.val4.val to i64
  %55 = getelementptr inbounds ptr, ptr %.val3.val.val, i64 %54
  %56 = load ptr, ptr %55, align 8, !tbaa !29
  br label %tailrecurse

57:                                               ; preds = %Abc_NodeSetTravIdCurrent.exit
  ret void
}